(lp0
(lp1
S'aaron'
p2
aS'buy'
p3
aS'orange'
p4
aI-1
aS'Tue Nov 22 14:43:44 2016'
p5
aa(lp6
S'aaron'
p7
aS'buy'
p8
aS'iphone'
p9
aI-5000
aS'Tue Nov 22 14:44:34 2016'
p10
aa(lp11
S'aaron'
p12
aS'buy'
p13
aS'orange'
p14
aI-1
aS'Tue Nov 22 14:48:36 2016'
p15
aa(lp16
S'aaron'
p17
aS'save'
p18
aS'saving'
p19
aI3000
aS'Thu Dec  1 10:14:44 2016'
p20
aa(lp21
S'aaron'
p22
aS'save'
p23
aS'saving'
p24
aI5000
aS'Thu Dec  1 10:15:56 2016'
p25
aa(lp26
S'aaron'
p27
aS'buy'
p28
aS'orange'
p29
aI-1
aS'Thu Dec  1 10:16:10 2016'
p30
aa(lp31
S'aaron'
p32
aS'save'
p33
aS'saving'
p34
aI500
aS'Thu Dec  1 10:16:26 2016'
p35
aa(lp36
S'aaron'
p37
aS'buy'
p38
aS'orange'
p39
aI-1
aS'Thu Dec  1 10:22:46 2016'
p40
aa(lp41
S'aaron'
p42
aS'buy'
p43
aS'orange'
p44
aI-1
aS'Thu Dec  1 10:24:43 2016'
p45
aa(lp46
S'aaron'
p47
aS'buy'
p48
aS'iphone'
p49
aI-5000
aS'Thu Dec  1 10:24:53 2016'
p50
aa(lp51
S'aaron'
p52
aS'withdraw'
p53
aS'drawing'
p54
aI1000
aS'Thu Dec  1 10:25:04 2016'
p55
aa.